(lp0
V\u7231\u6211\u4e2d\u534e
p1
aV\u5b89\u5b9a\u56e2\u7ed3
p2
aV\u5b89\u5c45\u4e50\u4e1a
p3
aV\u5b89\u5168\u751f\u4ea7
p4
aV\u767e\u5e74\u6811\u4eba
p5
aV\u767e\u4e8b\u5927\u5409
p6
aV\u767e\u4e1a\u5174\u65fa
p7
aV\u67cf\u7fe0\u6885\u9999
p8
aV\u5b9d\u5c71\u971e\u851a
p9
aV\u4fdd\u9a7e\u62a4\u822a
p10
aV\u4fbf\u6c11\u5229\u56fd
p11
aV\u522b\u5f00\u751f\u9762
p12
aV\u5bbe\u81f3\u5982\u5f52
p13
aV\u8d22\u6e90\u4f3c\u6c34
p14
aV\u91c7\u7164\u5149\u8363
p15
aV\u60e9\u8150\u8083\u8d2a
p16
aV\u6625\u5b89\u590f\u6cf0
p17
aV\u6625\u5230\u4e07\u5bb6
p18
aV\u6625\u98ce\u5316\u96e8
p19
aV\u6625\u98ce\u60e0\u6211
p20
aV\u6625\u98ce\u6ee1\u9762
p21
aV\u6625\u5149\u660e\u5a9a
p22
aV\u6625\u534e\u79cb\u5b9e
p23
aV\u6625\u56de\u534e\u590f
p24
aV\u6625\u6765\u559c\u6c14
p25
aV\u6625\u8054\u795d\u798f
p26
aV\u6625\u6ee1\u4e7e\u5764
p27
aV\u6625\u6ee1\u4eba\u95f4
p28
aV\u6625\u6ee1\u795e\u5dde
p29
aV\u6625\u6ee1\u6821\u56ed
p30
aV\u6625\u8272\u6ee1\u56ed
p31
aV\u6625\u8212\u9526\u7ee3
p32
aV\u6625\u6dfb\u5feb\u4e50
p33
aV\u6625\u610f\u76ce\u7136
p34
aV\u6625\u610f\u76c8\u95e8
p35
aV\u6625\u97f5\u5404\u7f8e
p36
aV\u5927\u5730\u56de\u6625
p37
aV\u5927\u5c55\u5b8f\u56fe
p38
aV\u4e39\u51e4\u671d\u9633
p39
aV\u5fb7\u6cd5\u517c\u6cbb
p40
aV\u6069\u6cfd\u5343\u79cb
p41
aV\u513f\u7ae5\u4e50\u56ed
p42
aV\u4e8c\u4eba\u540c\u5fc3
p43
aV\u53d1\u5c55\u7ecf\u6d4e
p44
aV\u7e41\u8363\u660c\u76db
p45
aV\u7e41\u8363\u7ecf\u6d4e
p46
aV\u53cd\u8150\u5021\u5ec9
p47
aV\u594b\u53d1\u56fe\u5f3a
p48
aV\u98ce\u548c\u65e5\u4e3d
p49
aV\u98ce\u8c03\u96e8\u987a
p50
aV\u98ce\u5473\u82ac\u82b3
p51
aV\u5c01\u5c71\u80b2\u6797
p52
aV\u51e4\u7fe5\u9f99\u9aa7
p53
aV\u670d\u52a1\u4eba\u6c11
p54
aV\u798f\u5730\u6d1e\u5929
p55
aV\u798f\u79ef\u6cf0\u6765
p56
aV\u798f\u6ee1\u4eba\u95f4
p57
aV\u798f\u5982\u4e1c\u6d77
p58
aV\u516c\u4ec6\u4e4b\u5bb6
p59
aV\u5de9\u56fa\u56fd\u9632
p60
aV\u80a1\u5e02\u6c99\u9f99
p61
aV\u987e\u5ba2\u81f3\u4e0a
p62
aV\u5149\u8363\u4e61\u9547
p63
aV\u56fd\u5bcc\u6c11\u5f3a
p64
aV\u56fd\u6cf0\u6c11\u5b89
p65
aV\u548c\u7766\u5bb6\u5ead
p66
aV\u548c\u6c14\u751f\u8d22
p67
aV\u7ea2\u6885\u62a5\u559c
p68
aV\u7ea2\u65e5\u9ad8\u7167
p69
aV\u7ea2\u5fc3\u5411\u515a
p70
aV\u6237\u7eb3\u5343\u7965
p71
aV\u62a4\u6797\u9632\u706b
p72
aV\u6b22\u5ea6\u6625\u8282
p73
aV\u6b22\u5ea6\u65b0\u6625
p74
aV\u9e21\u9e2d\u6210\u7fa4
p75
aV\u79ef\u5fb7\u4eba\u5bb6
p76
aV\u5409\u7965\u5982\u610f
p77
aV\u5409\u7f8a\u8fce\u6625
p78
aV\u7ee7\u5f80\u5f00\u6765
p79
aV\u8270\u82e6\u521b\u4e1a
p80
aV\u8270\u82e6\u594b\u6597
p81
aV\u89c1\u4e49\u52c7\u4e3a
p82
aV\u5efa\u529f\u7acb\u4e1a
p83
aV\u5efa\u8bbe\u7956\u56fd
p84
aV\u6c5f\u5c71\u591a\u5a07
p85
aV\u6c5f\u5c71\u9526\u7ee3
p86
aV\u6559\u80b2\u6709\u65b9
p87
aV\u91d1\u878d\u5b9e\u4f53
p88
aV\u7ecf\u6d4e\u7e41\u8363
p89
aV\u4e5d\u5dde\u6625\u6d53
p90
aV\u519b\u6c11\u56e2\u7ed3
p91
aV\u5f00\u62d3\u5e02\u573a
p92
aV\u5eb7\u4e50\u6240\u5728
p93
aV\u79d1\u6280\u5174\u56fd
p94
aV\u79d1\u6280\u4e4b\u5bb6
p95
aV\u79d1\u6559\u5174\u519c
p96
aV\u514b\u5df1\u5949\u516c
p97
aV\u6269\u5927\u5c31\u4e1a
p98
aV\u52b1\u7cbe\u56fe\u6cbb
p99
aV\u826f\u5e08\u76ca\u53cb
p100
aV\u4e24\u8896\u6e05\u98ce
p101
aV\u90bb\u91cc\u548c\u7766
p102
aV\u516d\u5408\u540c\u6625
p103
aV\u516d\u8109\u8c03\u9e37
p104
aV\u516d\u4e8b\u4fee\u6cbb
p105
aV\u9f99\u51e4\u5448\u7965
p106
aV\u7387\u5148\u5782\u8303
p107
aV\u4e70\u5356\u516c\u5e73
p108
aV\u6ee1\u9762\u6625\u98ce
p109
aV\u6ee1\u5e02\u6625\u8272
p110
aV\u6ee1\u9662\u751f\u8f89
p111
aV\u7164\u6d77\u4e91\u84b8
p112
aV\u7f8e\u6ee1\u5e78\u798f
p113
aV\u95e8\u76c8\u4e94\u798f
p114
aV\u95e8\u81fb\u767e\u798f
p115
aV\u5999\u624b\u56de\u6625
p116
aV\u6c11\u5bcc\u56fd\u5f3a
p117
aV\u6c11\u751f\u5728\u52e4
p118
aV\u6c11\u65cf\u590d\u5174
p119
aV\u7eb3\u798f\u8fce\u7965
p120
aV\u725b\u80a5\u9a6c\u58ee
p121
aV\u57f9\u6843\u80b2\u674e
p122
aV\u9e4f\u7a0b\u4e07\u91cc
p123
aV\u666e\u5929\u540c\u5e86
p124
aV\u6c14\u58ee\u5c71\u6cb3
p125
aV\u524d\u7a0b\u4f3c\u9526
p126
aV\u52e4\u4fed\u5efa\u56fd
p127
aV\u52e4\u52b3\u95e8\u7b2c
p128
aV\u52e4\u653f\u4e3a\u6c11
p129
aV\u6e05\u5fc3\u63d0\u795e
p130
aV\u6e05\u6b63\u5ec9\u660e
p131
aV\u6c42\u5b9e\u8fdb\u53d6
p132
aV\u5168\u9762\u53d1\u5c55
p133
aV\u5168\u9762\u5c0f\u5eb7
p134
aV\u4eba\u624d\u8f88\u51fa
p135
aV\u4eba\u5b9a\u80dc\u5929
p136
aV\u4eba\u6770\u5730\u7075
p137
aV\u4eba\u6c11\u594b\u53d1
p138
aV\u4eba\u6c11\u529f\u81e3
p139
aV\u4eba\u52e4\u6625\u65e9
p140
aV\u4eba\u5bff\u5e74\u4e30
p141
aV\u4eba\u6587\u835f\u8403
p142
aV\u4eba\u5fc3\u601d\u6cbb
p143
aV\u65e5\u65b0\u6708\u5f02
p144
aV\u8363\u534e\u5bcc\u8d35
p145
aV\u4e09\u5341\u800c\u7acb
p146
aV\u4e09\u5143\u53ca\u7b2c
p147
aV\u6df1\u5316\u6539\u9769
p148
aV\u751f\u8d22\u6709\u9053
p149
aV\u751f\u610f\u5174\u9686
p150
aV\u5341\u5e74\u751f\u805a
p151
aV\u65f6\u548c\u5c81\u597d
p152
aV\u5b9e\u4e8b\u6c42\u662f
p153
aV\u56db\u6d77\u5347\u5e73
p154
aV\u56db\u6d77\u540c\u6625
p155
aV\u56db\u5b63\u5448\u7965
p156
aV\u56db\u5b63\u98d8\u9999
p157
aV\u56db\u5b63\u5e73\u5b89
p158
aV\u56db\u5b63\u957f\u6625
p159
aV\u56db\u65f6\u5982\u610f
p160
aV\u56db\u4e16\u540c\u5802
p161
aV\u677e\u98ce\u7af9\u97f5
p162
aV\u817e\u98de\u4e8b\u4e1a
p163
aV\u56e2\u7ed3\u594b\u6597
p164
aV\u56e2\u7ed3\u594b\u8fdb
p165
aV\u4e07\u4e8b\u5927\u5409
p166
aV\u4e07\u4e8b\u4ea8\u901a
p167
aV\u4e07\u4e8b\u5982\u610f
p168
aV\u4e07\u8c61\u66f4\u65b0
p169
aV\u6e29\u6696\u5982\u6625
p170
aV\u6587\u5316\u56ed\u6797
p171
aV\u4e94\u798f\u4e34\u95e8
p172
aV\u4e94\u8c37\u4e30\u767b
p173
aV\u4e94\u4e16\u5176\u660c
p174
aV\u7269\u961c\u6c11\u5eb7
p175
aV\u7269\u534e\u5929\u5b9d
p176
aV\u7269\u7f8e\u4ef7\u5ec9
p177
aV\u5e0c\u671b\u5927\u6210
p178
aV\u559c\u6c14\u76c8\u95e8
p179
aV\u559c\u5e86\u4e30\u5e74
p180
aV\u559c\u5e86\u7f8a\u5e74
p181
aV\u7965\u4e91\u5317\u81f3
p182
aV\u5411\u9633\u95e8\u7b2c
p183
aV\u5b5d\u656c\u8001\u4eba
p184
aV\u6b23\u6b23\u5411\u8363
p185
aV\u65b0\u6625\u5409\u5e86
p186
aV\u5e78\u798f\u4eba\u5bb6
p187
aV\u4e00\u5c18\u4e0d\u67d3
p188
aV\u4e00\u4ee3\u98ce\u6d41
p189
aV\u4e00\u8eab\u6b63\u6c14
p190
aV\u4e00\u5fc3\u8015\u8018
p191
aV\u4e00\u5fc3\u4e00\u5fb7
p192
aV\u97f3\u4e50\u8336\u5ea7
p193
aV\u4e91\u84b8\u971e\u851a
p194
aV\u518d\u521b\u8f89\u714c
p195
aV\u957f\u6625\u4e0d\u8001
p196
aV\u62db\u8d22\u8fdb\u5b9d
p197
aV\u632f\u5174\u4f01\u4e1a
p198
aV\u632f\u5174\u4e2d\u534e
p199
aV\u653f\u7b56\u5f52\u5fc3
p200
aV\u653f\u901a\u4eba\u548c
p201
aV\u8d28\u91cf\u7b2c\u4e00
p202
aV\u949f\u7075\u6bd3\u79c0
p203
aV\u795d\u541b\u5065\u5eb7
p204
aV\u88c5\u70b9\u6625\u8272
p205
aV\u58ee\u5fd7\u51cc\u4e91
p206
aV\u7d2b\u6c14\u4e1c\u6765
p207
aV\u81ea\u529b\u66f4\u751f
p208
aV\u7956\u56fd\u660c\u76db
p209
aV\u5c0a\u8001\u7231\u5e7c
p210
aV\u5c0a\u5e08\u91cd\u6559
p211
a.